; Function Attrs: mustprogress uwtable
define internal void @_ZN11opencv_test12_GLOBAL__N_150gtest_AdaptiveManifoldPerfTest_perf_EvalGenerator_Ev(ptr dead_on_unwind noalias writable sret(%"class.testing::internal::ParamGenerator") align 8 %0) #4 {
  %2 = alloca %"class.testing::internal::CartesianProductHolder5", align 4
  call void @llvm.lifetime.start.p0(i64 48, ptr nonnull %2) #27
  %.sroa.01.0.copyload = load i64, ptr @_ZN4perfL7sz1080pE, align 8
  %.sroa.0.0.copyload = load i64, ptr @_ZN4perfL6sz720pE, align 8
  store i8 1, ptr %2, align 4, !tbaa !34, !alias.scope !37
  %3 = getelementptr inbounds nuw i8, ptr %2, i64 1
  store i8 0, ptr %3, align 1, !tbaa !40, !alias.scope !37
  %4 = getelementptr inbounds nuw i8, ptr %2, i64 4
  store i64 %.sroa.01.0.copyload, ptr %4, align 4, !alias.scope !37
  %5 = getelementptr inbounds nuw i8, ptr %2, i64 12
  store i64 %.sroa.0.0.copyload, ptr %5, align 4, !alias.scope !37
  %6 = getelementptr inbounds nuw i8, ptr %2, i64 20
  store i32 1, ptr %6, align 4, !tbaa !41, !alias.scope !37
  %7 = getelementptr inbounds nuw i8, ptr %2, i64 24
  store i32 3, ptr %7, align 4, !tbaa !43, !alias.scope !37
  %8 = getelementptr inbounds nuw i8, ptr %2, i64 28
  store i32 8, ptr %8, align 4, !tbaa !44, !alias.scope !37
  %9 = getelementptr inbounds nuw i8, ptr %2, i64 32
  store i32 1, ptr %9, align 4, !tbaa !45, !alias.scope !37
  %10 = getelementptr inbounds nuw i8, ptr %2, i64 36
  store i32 3, ptr %10, align 4, !tbaa !47, !alias.scope !37
  %11 = getelementptr inbounds nuw i8, ptr %2, i64 40
  store i32 0, ptr %11, align 4, !tbaa !45, !alias.scope !37
  %12 = getelementptr inbounds nuw i8, ptr %2, i64 44
  store i32 5, ptr %12, align 4, !tbaa !47, !alias.scope !37
  call void @_ZNK7testing8internal23CartesianProductHolder5INS0_11ValueArray2IbbEENS2_IN2cv5Size_IiEES6_EENS0_11ValueArray3IiiiEENS2_IiiEESA_EcvNS0_14ParamGeneratorISt5tupleIJT_T0_T1_T2_T3_EEEEIbS6_iiN4perf7MatTypeEEEv(ptr dead_on_unwind writable sret(%"class.testing::internal::ParamGenerator") align 8 %0, ptr noundef nonnull align 4 dereferenceable(48) %2)
  call void @llvm.lifetime.end.p0(i64 48, ptr nonnull %2) #27
  ret void
}